; Function Attrs: nounwind uwtable
define ptr @l_Std_DTreeMap_Internal_Impl_foldlM___at_Lean_Server_References_removeIlean___spec__3(ptr noundef %0, ptr noundef %1) local_unnamed_addr #0 {
  br label %3

3:                                                ; preds = %.backedge, %2
  %.028 = phi ptr [ %1, %2 ], [ %19, %.backedge ]
  %.0 = phi ptr [ %0, %2 ], [ %.0.be, %.backedge ]
  %4 = ptrtoint ptr %.028 to i64
  %5 = and i64 %4, 1
  %.not.i31 = icmp eq i64 %5, 0
  br i1 %.not.i31, label %9, label %6

6:                                                ; preds = %3
  %7 = lshr i64 %4, 1
  %8 = trunc i64 %7 to i32
  br label %lean_obj_tag.exit

9:                                                ; preds = %3
  %10 = getelementptr i8, ptr %.028, i64 4
  %.val.i = load i32, ptr %10, align 4
  %11 = lshr i32 %.val.i, 24
  br label %lean_obj_tag.exit

lean_obj_tag.exit:                                ; preds = %6, %9
  %.0.i = phi i32 [ %8, %6 ], [ %11, %9 ]
  %12 = icmp eq i32 %.0.i, 0
  br i1 %12, label %13, label %61

13:                                               ; preds = %lean_obj_tag.exit
  %14 = getelementptr inbounds nuw i8, ptr %.028, i64 16
  %15 = load ptr, ptr %14, align 8, !tbaa !4
  %16 = getelementptr inbounds nuw i8, ptr %.028, i64 32
  %17 = load ptr, ptr %16, align 8, !tbaa !4
  %18 = getelementptr inbounds nuw i8, ptr %.028, i64 40
  %19 = load ptr, ptr %18, align 8, !tbaa !4
  %20 = tail call ptr @l_Std_DTreeMap_Internal_Impl_foldlM___at_Lean_Server_References_removeIlean___spec__3(ptr noundef %.0, ptr noundef %17)
  %.val = load i32, ptr %20, align 4, !tbaa !8
  %21 = icmp eq i32 %.val, 1
  %22 = getelementptr inbounds nuw i8, ptr %20, i64 8
  %23 = load ptr, ptr %22, align 8, !tbaa !4
  br i1 %21, label %24, label %26

24:                                               ; preds = %13
  %25 = tail call ptr @l_Std_DTreeMap_Internal_Impl_erase___at_Lean_Server_References_removeIlean___spec__2(ptr noundef %15, ptr noundef %23, ptr nonnull poison)
  store ptr %25, ptr %22, align 8, !tbaa !4
  br label %.backedge

26:                                               ; preds = %13
  %27 = getelementptr inbounds nuw i8, ptr %20, i64 16
  %28 = load ptr, ptr %27, align 8, !tbaa !4
  %29 = ptrtoint ptr %28 to i64
  %30 = and i64 %29, 1
  %.not = icmp eq i64 %30, 0
  br i1 %.not, label %31, label %lean_inc.exit30

31:                                               ; preds = %26
  %.val.i32 = load i32, ptr %28, align 4, !tbaa !8
  %32 = icmp sgt i32 %.val.i32, 0
  br i1 %32, label %33, label %35, !prof !11

33:                                               ; preds = %31
  %34 = add nuw i32 %.val.i32, 1
  store i32 %34, ptr %28, align 4, !tbaa !8
  br label %lean_inc.exit30

35:                                               ; preds = %31
  %.not.i33 = icmp eq i32 %.val.i32, 0
  br i1 %.not.i33, label %lean_inc.exit30, label %36

36:                                               ; preds = %35
  tail call void @lean_inc_ref_cold(ptr noundef nonnull %28) #8
  br label %lean_inc.exit30

lean_inc.exit30:                                  ; preds = %36, %35, %33, %26
  %37 = ptrtoint ptr %23 to i64
  %38 = and i64 %37, 1
  %.not37 = icmp eq i64 %38, 0
  br i1 %.not37, label %39, label %lean_inc.exit

39:                                               ; preds = %lean_inc.exit30
  %.val.i34 = load i32, ptr %23, align 4, !tbaa !8
  %40 = icmp sgt i32 %.val.i34, 0
  br i1 %40, label %41, label %43, !prof !11

41:                                               ; preds = %39
  %42 = add nuw i32 %.val.i34, 1
  store i32 %42, ptr %23, align 4, !tbaa !8
  br label %lean_inc.exit

43:                                               ; preds = %39
  %.not.i35 = icmp eq i32 %.val.i34, 0
  br i1 %.not.i35, label %lean_inc.exit, label %44

44:                                               ; preds = %43
  tail call void @lean_inc_ref_cold(ptr noundef nonnull %23) #8
  br label %lean_inc.exit

lean_inc.exit:                                    ; preds = %44, %43, %41, %lean_inc.exit30
  %45 = ptrtoint ptr %20 to i64
  %46 = and i64 %45, 1
  %.not38 = icmp eq i64 %46, 0
  br i1 %.not38, label %47, label %lean_dec.exit

47:                                               ; preds = %lean_inc.exit
  %48 = load i32, ptr %20, align 4, !tbaa !8
  %49 = icmp sgt i32 %48, 1
  br i1 %49, label %50, label %52, !prof !11

50:                                               ; preds = %47
  %51 = add nsw i32 %48, -1
  store i32 %51, ptr %20, align 4, !tbaa !8
  br label %lean_dec.exit

52:                                               ; preds = %47
  %.not.i = icmp eq i32 %48, 0
  br i1 %.not.i, label %lean_dec.exit, label %53

53:                                               ; preds = %52
  tail call void @lean_dec_ref_cold(ptr noundef nonnull %20) #8
  br label %lean_dec.exit

lean_dec.exit:                                    ; preds = %53, %52, %50, %lean_inc.exit
  %54 = tail call ptr @l_Std_DTreeMap_Internal_Impl_erase___at_Lean_Server_References_removeIlean___spec__2(ptr noundef %15, ptr noundef %23, ptr nonnull poison)
  tail call void @lean_inc_heartbeat() #8
  %55 = tail call noalias ptr @mi_malloc_small(i64 noundef 24) #8
  %56 = icmp eq ptr %55, null
  br i1 %56, label %57, label %lean_alloc_ctor.exit

57:                                               ; preds = %lean_dec.exit
  tail call void @lean_internal_panic_out_of_memory() #9
  unreachable

lean_alloc_ctor.exit:                             ; preds = %lean_dec.exit
  %58 = getelementptr inbounds nuw i8, ptr %55, i64 4
  store i32 1, ptr %55, align 4, !tbaa !8
  store i32 131096, ptr %58, align 4
  %59 = getelementptr inbounds nuw i8, ptr %55, i64 8
  store ptr %54, ptr %59, align 8, !tbaa !4
  %60 = getelementptr inbounds nuw i8, ptr %55, i64 16
  store ptr %28, ptr %60, align 8, !tbaa !4
  br label %.backedge

.backedge:                                        ; preds = %lean_alloc_ctor.exit, %24
  %.0.be = phi ptr [ %55, %lean_alloc_ctor.exit ], [ %20, %24 ]
  br label %3

61:                                               ; preds = %lean_obj_tag.exit
  ret ptr %.0
}